; Function Attrs: mustprogress nofree norecurse nosync nounwind willreturn memory(argmem: readwrite) uwtable
define noundef i32 @OnUpdateStrNotEmpty(ptr nocapture noundef readnone %0, ptr noundef %1, ptr noundef %2, ptr nocapture noundef writeonly %3, ptr nocapture noundef readnone %4, i32 noundef %5) local_unnamed_addr #11 {
  %.not = icmp eq ptr %1, null
  br i1 %.not, label %11, label %7

7:                                                ; preds = %6
  %8 = getelementptr inbounds i8, ptr %1, i64 16
  %9 = load i64, ptr %8, align 8
  %10 = icmp eq i64 %9, 0
  br i1 %10, label %14, label %11

11:                                               ; preds = %7, %6
  %12 = ptrtoint ptr %2 to i64
  %13 = getelementptr inbounds i8, ptr %3, i64 %12
  store ptr %1, ptr %13, align 8
  br label %14

14:                                               ; preds = %7, %11
  %.0 = phi i32 [ 0, %11 ], [ -1, %7 ]
  ret i32 %.0
}